target datalayout = "e-m:e-p270:32:32-p271:32:32-p272:64:64-i64:64-i128:128-f80:128-n8:16:32:64-S128"
target triple = "x86_64-pc-linux-gnu"

; Function Attrs: nounwind uwtable
define internal ptr @Unroll1ByteSkip2(ptr noundef %0, ptr noundef %1, ptr noundef %2, i32 noundef %3) #0 {
  %5 = alloca ptr, align 8
  %6 = alloca ptr, align 8
  %7 = alloca ptr, align 8
  %8 = alloca i32, align 4
  store ptr %0, ptr %5, align 8
  store ptr %1, ptr %6, align 8
  store ptr %2, ptr %7, align 8
  store i32 %3, ptr %8, align 4
  %9 = load ptr, ptr %7, align 8
  %10 = load i8, ptr %9, align 1
  %11 = zext i8 %10 to i16
  %12 = zext i16 %11 to i32
  %13 = shl i32 %12, 8
  %14 = load ptr, ptr %7, align 8
  %15 = load i8, ptr %14, align 1
  %16 = zext i8 %15 to i32
  %17 = or i32 %13, %16
  %18 = trunc i32 %17 to i16
  %19 = load ptr, ptr %6, align 8
  %20 = getelementptr inbounds i16, ptr %19, i64 2
  store i16 %18, ptr %20, align 2
  %21 = load ptr, ptr %6, align 8
  %22 = getelementptr inbounds i16, ptr %21, i64 1
  store i16 %18, ptr %22, align 2
  %23 = load ptr, ptr %6, align 8
  %24 = getelementptr inbounds i16, ptr %23, i64 0
  store i16 %18, ptr %24, align 2
  %25 = load ptr, ptr %7, align 8
  %26 = getelementptr inbounds i8, ptr %25, i32 1
  store ptr %26, ptr %7, align 8
  %27 = load ptr, ptr %7, align 8
  %28 = getelementptr inbounds i8, ptr %27, i64 2
  store ptr %28, ptr %7, align 8
  %29 = load ptr, ptr %7, align 8
  ret ptr %29
}